target datalayout = "e-m:e-p270:32:32-p271:32:32-p272:64:64-i64:64-i128:128-f80:128-n8:16:32:64-S128"
target triple = "x86_64-pc-linux-gnu"

%struct.OSQPSolver = type { ptr, ptr, ptr, ptr }
%struct.OSQPWorkspace_ = type { ptr, ptr, ptr, ptr, ptr, ptr, ptr, ptr, ptr, ptr, ptr, ptr, ptr, ptr, ptr, ptr, ptr, ptr, ptr, ptr, ptr, ptr, ptr, ptr, ptr, ptr, double, double, double, ptr, i64, i64, i64, i64, ptr }
%struct.OSQPData = type { i64, i64, ptr, ptr, ptr, ptr, ptr }
%struct.OSQPDerivativeData = type { i64, i64, i64, ptr, ptr, ptr, ptr, ptr }

@__func__.adjoint_derivative_get_vec = private unnamed_addr constant [27 x i8] c"adjoint_derivative_get_vec\00", align 1

; Function Attrs: nounwind uwtable
define i64 @adjoint_derivative_get_vec(ptr noundef %0, ptr noundef %1, ptr noundef %2, ptr noundef %3) #0 {
  %5 = alloca i64, align 8
  %6 = alloca ptr, align 8
  %7 = alloca ptr, align 8
  %8 = alloca ptr, align 8
  %9 = alloca ptr, align 8
  %10 = alloca i64, align 8
  %11 = alloca i64, align 8
  %12 = alloca ptr, align 8
  %13 = alloca i64, align 8
  %14 = alloca ptr, align 8
  store ptr %0, ptr %6, align 8
  store ptr %1, ptr %7, align 8
  store ptr %2, ptr %8, align 8
  store ptr %3, ptr %9, align 8
  %15 = load ptr, ptr %6, align 8
  %16 = icmp ne ptr %15, null
  br i1 %16, label %17, label %29

17:                                               ; preds = %4
  %18 = load ptr, ptr %6, align 8
  %19 = getelementptr inbounds %struct.OSQPSolver, ptr %18, i32 0, i32 3
  %20 = load ptr, ptr %19, align 8
  %21 = icmp ne ptr %20, null
  br i1 %21, label %22, label %29

22:                                               ; preds = %17
  %23 = load ptr, ptr %6, align 8
  %24 = getelementptr inbounds %struct.OSQPSolver, ptr %23, i32 0, i32 3
  %25 = load ptr, ptr %24, align 8
  %26 = getelementptr inbounds %struct.OSQPWorkspace_, ptr %25, i32 0, i32 34
  %27 = load ptr, ptr %26, align 8
  %28 = icmp ne ptr %27, null
  br i1 %28, label %31, label %29

29:                                               ; preds = %22, %17, %4
  %30 = call i64 @_osqp_error(i32 noundef 6, ptr noundef @__func__.adjoint_derivative_get_vec)
  store i64 %30, ptr %5, align 8
  br label %94

31:                                               ; preds = %22
  %32 = load ptr, ptr %6, align 8
  %33 = getelementptr inbounds %struct.OSQPSolver, ptr %32, i32 0, i32 3
  %34 = load ptr, ptr %33, align 8
  %35 = getelementptr inbounds %struct.OSQPWorkspace_, ptr %34, i32 0, i32 0
  %36 = load ptr, ptr %35, align 8
  %37 = getelementptr inbounds %struct.OSQPData, ptr %36, i32 0, i32 0
  %38 = load i64, ptr %37, align 8
  store i64 %38, ptr %11, align 8
  %39 = load ptr, ptr %6, align 8
  %40 = getelementptr inbounds %struct.OSQPSolver, ptr %39, i32 0, i32 3
  %41 = load ptr, ptr %40, align 8
  %42 = getelementptr inbounds %struct.OSQPWorkspace_, ptr %41, i32 0, i32 34
  %43 = load ptr, ptr %42, align 8
  store ptr %43, ptr %12, align 8
  %44 = load i64, ptr %11, align 8
  %45 = load ptr, ptr %12, align 8
  %46 = getelementptr inbounds %struct.OSQPDerivativeData, ptr %45, i32 0, i32 0
  %47 = load i64, ptr %46, align 8
  %48 = add nsw i64 %44, %47
  %49 = load ptr, ptr %12, align 8
  %50 = getelementptr inbounds %struct.OSQPDerivativeData, ptr %49, i32 0, i32 1
  %51 = load i64, ptr %50, align 8
  %52 = add nsw i64 %48, %51
  %53 = load ptr, ptr %12, align 8
  %54 = getelementptr inbounds %struct.OSQPDerivativeData, ptr %53, i32 0, i32 2
  %55 = load i64, ptr %54, align 8
  %56 = add nsw i64 %52, %55
  store i64 %56, ptr %13, align 8
  %57 = load ptr, ptr %12, align 8
  %58 = getelementptr inbounds %struct.OSQPDerivativeData, ptr %57, i32 0, i32 7
  %59 = load ptr, ptr %58, align 8
  %60 = load i64, ptr %13, align 8
  %61 = load i64, ptr %11, align 8
  %62 = call ptr @OSQPVectorf_view(ptr noundef %59, i64 noundef %60, i64 noundef %61)
  store ptr %62, ptr %14, align 8
  %63 = load ptr, ptr %7, align 8
  %64 = load ptr, ptr %14, align 8
  call void @OSQPVectorf_to_raw(ptr noundef %63, ptr noundef %64)
  %65 = load ptr, ptr %8, align 8
  %66 = load ptr, ptr %12, align 8
  %67 = getelementptr inbounds %struct.OSQPDerivativeData, ptr %66, i32 0, i32 5
  %68 = load ptr, ptr %67, align 8
  call void @OSQPVectorf_to_raw(ptr noundef %65, ptr noundef %68)
  %69 = load ptr, ptr %9, align 8
  %70 = load ptr, ptr %12, align 8
  %71 = getelementptr inbounds %struct.OSQPDerivativeData, ptr %70, i32 0, i32 6
  %72 = load ptr, ptr %71, align 8
  call void @OSQPVectorf_to_raw(ptr noundef %69, ptr noundef %72)
  store i64 0, ptr %10, align 8
  br label %73

73:                                               ; preds = %89, %31
  %74 = load i64, ptr %10, align 8
  %75 = load ptr, ptr %12, align 8
  %76 = getelementptr inbounds %struct.OSQPDerivativeData, ptr %75, i32 0, i32 6
  %77 = load ptr, ptr %76, align 8
  %78 = call i64 @OSQPVectorf_length(ptr noundef %77)
  %79 = icmp slt i64 %74, %78
  br i1 %79, label %80, label %92

80:                                               ; preds = %73
  %81 = load ptr, ptr %9, align 8
  %82 = load i64, ptr %10, align 8
  %83 = getelementptr inbounds double, ptr %81, i64 %82
  %84 = load double, ptr %83, align 8
  %85 = fneg double %84
  %86 = load ptr, ptr %9, align 8
  %87 = load i64, ptr %10, align 8
  %88 = getelementptr inbounds double, ptr %86, i64 %87
  store double %85, ptr %88, align 8
  br label %89

89:                                               ; preds = %80
  %90 = load i64, ptr %10, align 8
  %91 = add nsw i64 %90, 1
  store i64 %91, ptr %10, align 8
  br label %73, !llvm.loop !8

92:                                               ; preds = %73
  %93 = load ptr, ptr %14, align 8
  call void @OSQPVectorf_view_free(ptr noundef %93)
  store i64 0, ptr %5, align 8
  br label %94

94:                                               ; preds = %92, %29
  %95 = load i64, ptr %5, align 8
  ret i64 %95
}