; Function Attrs: nounwind uwtable
define i64 @adjoint_derivative_get_vec(ptr noundef readonly %0, ptr noundef %1, ptr noundef %2, ptr noundef %3) local_unnamed_addr #0 {
  %.not = icmp eq ptr %0, null
  br i1 %.not, label %11, label %5

5:                                                ; preds = %4
  %6 = getelementptr inbounds i8, ptr %0, i64 24
  %7 = load ptr, ptr %6, align 8
  %.not30 = icmp eq ptr %7, null
  br i1 %.not30, label %11, label %8

8:                                                ; preds = %5
  %9 = getelementptr inbounds i8, ptr %7, i64 272
  %10 = load ptr, ptr %9, align 8
  %.not31 = icmp eq ptr %10, null
  br i1 %.not31, label %11, label %13

11:                                               ; preds = %8, %5, %4
  %12 = tail call i64 @_osqp_error(i32 noundef 6, ptr noundef nonnull @__func__.adjoint_derivative_get_vec) #6
  br label %41

13:                                               ; preds = %8
  %14 = load ptr, ptr %7, align 8
  %15 = load i64, ptr %14, align 8
  %16 = load i64, ptr %10, align 8
  %17 = add nsw i64 %16, %15
  %18 = getelementptr inbounds i8, ptr %10, i64 8
  %19 = load i64, ptr %18, align 8
  %20 = add nsw i64 %17, %19
  %21 = getelementptr inbounds i8, ptr %10, i64 16
  %22 = load i64, ptr %21, align 8
  %23 = add nsw i64 %20, %22
  %24 = getelementptr inbounds i8, ptr %10, i64 56
  %25 = load ptr, ptr %24, align 8
  %26 = tail call ptr @OSQPVectorf_view(ptr noundef %25, i64 noundef %23, i64 noundef %15) #6
  tail call void @OSQPVectorf_to_raw(ptr noundef %1, ptr noundef %26) #6
  %27 = getelementptr inbounds i8, ptr %10, i64 40
  %28 = load ptr, ptr %27, align 8
  tail call void @OSQPVectorf_to_raw(ptr noundef %2, ptr noundef %28) #6
  %29 = getelementptr inbounds i8, ptr %10, i64 48
  %30 = load ptr, ptr %29, align 8
  tail call void @OSQPVectorf_to_raw(ptr noundef %3, ptr noundef %30) #6
  %31 = load ptr, ptr %29, align 8
  %32 = tail call i64 @OSQPVectorf_length(ptr noundef %31) #6
  %33 = icmp sgt i64 %32, 0
  br i1 %33, label %.lr.ph, label %._crit_edge

.lr.ph:                                           ; preds = %13, %.lr.ph
  %.02632 = phi i64 [ %37, %.lr.ph ], [ 0, %13 ]
  %34 = getelementptr inbounds double, ptr %3, i64 %.02632
  %35 = load double, ptr %34, align 8
  %36 = fneg double %35
  store double %36, ptr %34, align 8
  %37 = add nuw nsw i64 %.02632, 1
  %38 = load ptr, ptr %29, align 8
  %39 = tail call i64 @OSQPVectorf_length(ptr noundef %38) #6
  %40 = icmp slt i64 %37, %39
  br i1 %40, label %.lr.ph, label %._crit_edge, !llvm.loop !8

._crit_edge:                                      ; preds = %.lr.ph, %13
  tail call void @OSQPVectorf_view_free(ptr noundef %26) #6
  br label %41

41:                                               ; preds = %._crit_edge, %11
  %.0 = phi i64 [ 0, %._crit_edge ], [ %12, %11 ]
  ret i64 %.0
}